target datalayout = "e-m:e-p270:32:32-p271:32:32-p272:64:64-i64:64-i128:128-f80:128-n8:16:32:64-S128"
target triple = "x86_64-pc-linux-gnu"

@SAVED_USER_ID = internal global i32 -1, align 4
@under_uid_switch = internal global i32 0, align 4
@rb_eRuntimeError = external global i64, align 8
@.str.228 = private unnamed_addr constant [76 x i8] c"can't handle UID while evaluating block given to Process::UID.switch method\00", align 1

; Function Attrs: inlinehint nounwind sspstrong uwtable
define internal i32 @obj2uid0(i64 noundef %0) #1 {
  %2 = alloca i64, align 8
  %3 = alloca i32, align 4
  %4 = alloca i64, align 8
  store i64 %0, ptr %2, align 8, !tbaa !35
  call void @llvm.lifetime.start.p0(i64 4, ptr %3) #27
  call void @llvm.lifetime.start.p0(i64 8, ptr %4) #27
  store i64 0, ptr %4, align 8, !tbaa !35
  %5 = load i64, ptr %2, align 8, !tbaa !35
  %6 = call i32 @obj2uid(i64 noundef %5, ptr noundef %4)
  store i32 %6, ptr %3, align 4, !tbaa !34
  %7 = load i64, ptr %4, align 8, !tbaa !35
  %8 = icmp ne i64 %7, 0
  br i1 %8, label %9, label %12

9:                                                ; preds = %1
  %10 = load i64, ptr %4, align 8, !tbaa !35
  %11 = call i64 @rb_str_resize(i64 noundef %10, i64 noundef 0)
  br label %13

12:                                               ; preds = %1
  br label %13

13:                                               ; preds = %12, %9
  %14 = load i32, ptr %3, align 4, !tbaa !34
  call void @llvm.lifetime.end.p0(i64 8, ptr %4) #27
  call void @llvm.lifetime.end.p0(i64 4, ptr %3) #27
  ret i32 %14
}

; Function Attrs: nounwind sspstrong uwtable
define internal void @check_uid_switch() #0 {
  %1 = load i32, ptr @under_uid_switch, align 4, !tbaa !34
  %2 = icmp ne i32 %1, 0
  br i1 %2, label %3, label %5

3:                                                ; preds = %0
  %4 = load i64, ptr @rb_eRuntimeError, align 8, !tbaa !35
  call void (i64, ptr, ...) @rb_raise(i64 noundef %4, ptr noundef @.str.228) #30
  unreachable

5:                                                ; preds = %0
  ret void
}

; Function Attrs: nounwind sspstrong uwtable
define internal i64 @p_uid_change_privilege(i64 noundef %0, i64 noundef %1) #0 {
  %3 = alloca i64, align 8
  %4 = alloca i64, align 8
  %5 = alloca i32, align 4
  %6 = alloca i32, align 4
  %7 = alloca i32, align 4
  store i64 %0, ptr %3, align 8, !tbaa !35
  store i64 %1, ptr %4, align 8, !tbaa !35
  call void @llvm.lifetime.start.p0(i64 4, ptr %5) #27
  call void @check_uid_switch()
  %8 = load i64, ptr %4, align 8, !tbaa !35
  %9 = call i32 @obj2uid0(i64 noundef %8)
  store i32 %9, ptr %5, align 4, !tbaa !34
  %10 = call i32 @geteuid() #27
  %11 = icmp eq i32 %10, 0
  br i1 %11, label %12, label %27

12:                                               ; preds = %2
  %13 = load i32, ptr %5, align 4, !tbaa !34
  %14 = load i32, ptr %5, align 4, !tbaa !34
  %15 = load i32, ptr %5, align 4, !tbaa !34
  %16 = call i32 @setresuid(i32 noundef %13, i32 noundef %14, i32 noundef %15) #27
  %17 = icmp slt i32 %16, 0
  br i1 %17, label %18, label %25

18:                                               ; preds = %12
  br label %19

19:                                               ; preds = %18
  call void @llvm.lifetime.start.p0(i64 4, ptr %6) #27
  %20 = call ptr @rb_errno_ptr()
  %21 = load i32, ptr %20, align 4, !tbaa !34
  store i32 %21, ptr %6, align 4, !tbaa !34
  %22 = load i32, ptr %6, align 4, !tbaa !34
  call void @rb_syserr_fail(i32 noundef %22, ptr noundef null) #30
  unreachable

23:                                               ; No predecessors!
  br label %24

24:                                               ; preds = %23
  br label %25

25:                                               ; preds = %24, %12
  %26 = load i32, ptr %5, align 4, !tbaa !34
  store i32 %26, ptr @SAVED_USER_ID, align 4, !tbaa !34
  br label %63

27:                                               ; preds = %2
  %28 = call i32 @getuid() #27
  %29 = load i32, ptr %5, align 4, !tbaa !34
  %30 = icmp eq i32 %28, %29
  br i1 %30, label %31, label %32

31:                                               ; preds = %27
  br label %34

32:                                               ; preds = %27
  %33 = load i32, ptr %5, align 4, !tbaa !34
  br label %34

34:                                               ; preds = %32, %31
  %35 = phi i32 [ -1, %31 ], [ %33, %32 ]
  %36 = call i32 @geteuid() #27
  %37 = load i32, ptr %5, align 4, !tbaa !34
  %38 = icmp eq i32 %36, %37
  br i1 %38, label %39, label %40

39:                                               ; preds = %34
  br label %42

40:                                               ; preds = %34
  %41 = load i32, ptr %5, align 4, !tbaa !34
  br label %42

42:                                               ; preds = %40, %39
  %43 = phi i32 [ -1, %39 ], [ %41, %40 ]
  %44 = load i32, ptr @SAVED_USER_ID, align 4, !tbaa !34
  %45 = load i32, ptr %5, align 4, !tbaa !34
  %46 = icmp eq i32 %44, %45
  br i1 %46, label %47, label %48

47:                                               ; preds = %42
  br label %50

48:                                               ; preds = %42
  %49 = load i32, ptr %5, align 4, !tbaa !34
  br label %50

50:                                               ; preds = %48, %47
  %51 = phi i32 [ -1, %47 ], [ %49, %48 ]
  %52 = call i32 @setresuid(i32 noundef %35, i32 noundef %43, i32 noundef %51) #27
  %53 = icmp slt i32 %52, 0
  br i1 %53, label %54, label %61

54:                                               ; preds = %50
  br label %55

55:                                               ; preds = %54
  call void @llvm.lifetime.start.p0(i64 4, ptr %7) #27
  %56 = call ptr @rb_errno_ptr()
  %57 = load i32, ptr %56, align 4, !tbaa !34
  store i32 %57, ptr %7, align 4, !tbaa !34
  %58 = load i32, ptr %7, align 4, !tbaa !34
  call void @rb_syserr_fail(i32 noundef %58, ptr noundef null) #30
  unreachable

59:                                               ; No predecessors!
  br label %60

60:                                               ; preds = %59
  br label %61

61:                                               ; preds = %60, %50
  %62 = load i32, ptr %5, align 4, !tbaa !34
  store i32 %62, ptr @SAVED_USER_ID, align 4, !tbaa !34
  br label %63

63:                                               ; preds = %61, %25
  %64 = load i64, ptr %4, align 8, !tbaa !35
  call void @llvm.lifetime.end.p0(i64 4, ptr %5) #27
  ret i64 %64
}