; Function Attrs: nounwind sspstrong uwtable
define internal noundef i64 @p_uid_change_privilege(i64 %0, i64 noundef returned %1) #1 {
  %3 = alloca i64, align 8
  %.b.i = load i1, ptr @under_uid_switch, align 4
  br i1 %.b.i, label %4, label %check_uid_switch.exit

4:                                                ; preds = %2
  %5 = load i64, ptr @rb_eRuntimeError, align 8, !tbaa !43
  tail call void (i64, ptr, ...) @rb_raise(i64 noundef %5, ptr noundef nonnull @.str.228) #29
  unreachable

check_uid_switch.exit:                            ; preds = %2
  call void @llvm.lifetime.start.p0(i64 8, ptr nonnull %3) #27
  store i64 0, ptr %3, align 8, !tbaa !43
  %6 = call fastcc i32 @obj2uid(i64 noundef %1, ptr noundef %3)
  %7 = load i64, ptr %3, align 8, !tbaa !43
  %.not.i = icmp eq i64 %7, 0
  br i1 %.not.i, label %obj2uid0.exit, label %8

8:                                                ; preds = %check_uid_switch.exit
  %9 = tail call i64 @rb_str_resize(i64 noundef %7, i64 noundef 0) #27
  br label %obj2uid0.exit

obj2uid0.exit:                                    ; preds = %check_uid_switch.exit, %8
  call void @llvm.lifetime.end.p0(i64 8, ptr nonnull %3) #27
  %10 = tail call i32 @geteuid() #27
  %11 = icmp eq i32 %10, 0
  br i1 %11, label %12, label %18

12:                                               ; preds = %obj2uid0.exit
  %13 = tail call i32 @setresuid(i32 noundef %6, i32 noundef %6, i32 noundef %6) #27
  %14 = icmp slt i32 %13, 0
  br i1 %14, label %15, label %33

15:                                               ; preds = %12
  %16 = tail call ptr @rb_errno_ptr() #27
  %17 = load i32, ptr %16, align 4, !tbaa !60
  tail call void @rb_syserr_fail(i32 noundef %17, ptr noundef null) #29
  unreachable

18:                                               ; preds = %obj2uid0.exit
  %19 = tail call i32 @getuid() #27
  %20 = icmp eq i32 %19, %6
  %21 = select i1 %20, i32 -1, i32 %6
  %22 = tail call i32 @geteuid() #27
  %23 = icmp eq i32 %22, %6
  %24 = select i1 %23, i32 -1, i32 %6
  %25 = load i32, ptr @SAVED_USER_ID, align 4, !tbaa !60
  %26 = icmp eq i32 %25, %6
  %27 = select i1 %26, i32 -1, i32 %6
  %28 = tail call i32 @setresuid(i32 noundef %21, i32 noundef %24, i32 noundef %27) #27
  %29 = icmp slt i32 %28, 0
  br i1 %29, label %30, label %33

30:                                               ; preds = %18
  %31 = tail call ptr @rb_errno_ptr() #27
  %32 = load i32, ptr %31, align 4, !tbaa !60
  tail call void @rb_syserr_fail(i32 noundef %32, ptr noundef null) #29
  unreachable

33:                                               ; preds = %18, %12
  store i32 %6, ptr @SAVED_USER_ID, align 4, !tbaa !60
  ret i64 %1
}